; Function Attrs: mustprogress uwtable
define hidden void @_ZNK3smt13theory_recfun18collect_statisticsER10statistics(ptr nocapture noundef nonnull readonly align 8 dereferenceable(212) %this, ptr noundef nonnull align 8 dereferenceable(16) %st) unnamed_addr #3 align 2 {
entry:
  %m_stats = getelementptr inbounds i8, ptr %this, i64 72
  %m_macro_expansions = getelementptr inbounds i8, ptr %this, i64 80
  %0 = load i32, ptr %m_macro_expansions, align 8
  tail call void @_ZN10statistics6updateEPKcj(ptr noundef nonnull align 8 dereferenceable(16) %st, ptr noundef nonnull @.str.15, i32 noundef %0)
  %1 = load i32, ptr %m_stats, align 8
  tail call void @_ZN10statistics6updateEPKcj(ptr noundef nonnull align 8 dereferenceable(16) %st, ptr noundef nonnull @.str.16, i32 noundef %1)
  %m_body_expansions = getelementptr inbounds i8, ptr %this, i64 76
  %2 = load i32, ptr %m_body_expansions, align 4
  tail call void @_ZN10statistics6updateEPKcj(ptr noundef nonnull align 8 dereferenceable(16) %st, ptr noundef nonnull @.str.17, i32 noundef %2)
  ret void
}